Certificate:
    Data:
        Version: 3 (0x2)
        Serial Number: 3 (0x3)
    Signature Algorithm: sha256WithRSAEncryption
        Issuer: C=CN, ST=Shanghai, L=city, O=Quantdo Technology, CN=127.0.0.1
        Validity
            Not Before: Jan  3 05:14:03 2018 GMT
            Not After : Jan  3 05:14:03 2019 GMT
        Subject: C=CN, ST=Shanghai, O=Quantdo Technology, CN=127.0.0.1
        Subject Public Key Info:
            Public Key Algorithm: rsaEncryption
                Public-Key: (1024 bit)
                Modulus:
                    00:ba:70:ad:67:e8:1a:43:f6:1a:e8:5c:18:85:54:
                    81:02:59:60:79:a9:93:1f:9c:2f:18:51:f3:bc:34:
                    d9:17:2e:32:61:cb:1f:7d:30:10:4b:25:d2:ea:26:
                    54:8a:9a:e3:79:f4:82:2b:93:3f:e4:e5:61:1a:8b:
                    c2:38:07:df:96:f4:ee:a2:49:b1:92:26:65:a1:2d:
                    22:2c:b6:db:02:42:d8:3b:b3:74:60:5f:f2:51:35:
                    42:a8:36:36:16:5f:dd:47:56:30:a0:e5:79:0e:bd:
                    06:dd:01:17:1b:a1:e5:36:f0:17:bc:dc:1e:4f:ee:
                    37:95:37:b4:2d:46:8b:8f:ff
                Exponent: 65537 (0x10001)
        X509v3 extensions:
            X509v3 Basic Constraints: 
                CA:FALSE
            Netscape Comment: 
                OpenSSL Generated Certificate
            X509v3 Subject Key Identifier: 
                61:92:69:87:0B:29:E5:72:A2:7E:AC:E7:EC:71:2C:1E:3E:97:BC:46
            X509v3 Authority Key Identifier: 
                DirName:/C=CN/ST=Shanghai/L=city/O=Quantdo Technology/CN=127.0.0.1
                serial:EA:62:5F:B1:E0:B7:32:21

    Signature Algorithm: sha256WithRSAEncryption
         38:72:db:e8:fe:38:49:b1:c8:00:18:41:4c:a7:5b:fa:a5:6c:
         b9:46:25:d3:d2:fd:95:2b:14:e5:a7:04:57:91:9d:a9:8f:c6:
         67:d0:72:82:f5:9b:24:9e:f1:78:8a:b3:82:00:81:e2:91:46:
         11:11:70:fc:92:8c:7d:e7:ff:7d:15:1b:71:35:f2:1b:48:fc:
         a3:29:ac:bb:aa:a0:c8:7a:15:1a:9f:c1:20:05:52:9a:c7:e2:
         39:40:f5:a7:f4:1a:9f:e7:05:64:be:bc:63:79:74:7d:46:84:
         b4:16:39:64:10:22:9a:2e:b7:58:e6:0c:4f:f3:8c:f5:c9:ab:
         63:8a:77:87:26:cc:99:82:04:59:78:f8:33:9c:8c:7a:9b:f9:
         41:92:36:55:63:05:51:8a:0b:05:27:36:a8:7d:92:a8:c2:ab:
         28:84:b3:a9:02:02:0b:ca:66:7c:bc:ca:56:62:65:e6:c5:15:
         28:02:dd:43:3a:5c:a1:c8:c8:84:5e:8d:68:85:aa:84:8f:e9:
         e1:eb:b5:8b:24:62:b4:b7:05:69:6f:f8:66:7a:17:c6:4d:42:
         10:dc:80:85:ad:8a:82:44:f4:5b:7c:d8:29:65:39:f0:d4:12:
         88:99:69:24:4b:16:e7:e9:cb:a4:c2:e1:d6:79:a4:be:46:fa:
         bd:96:3d:f4
-----BEGIN CERTIFICATE-----
MIIDgDCCAmigAwIBAgIBAzANBgkqhkiG9w0BAQsFADBgMQswCQYDVQQGEwJDTjER
MA8GA1UECAwIU2hhbmdoYWkxDTALBgNVBAcMBGNpdHkxGzAZBgNVBAoMElF1YW50
ZG8gVGVjaG5vbG9neTESMBAGA1UEAwwJMTI3LjAuMC4xMB4XDTE4MDEwMzA1MTQw
M1oXDTE5MDEwMzA1MTQwM1owUTELMAkGA1UEBhMCQ04xETAPBgNVBAgMCFNoYW5n
aGFpMRswGQYDVQQKDBJRdWFudGRvIFRlY2hub2xvZ3kxEjAQBgNVBAMMCTEyNy4w
LjAuMTCBnzANBgkqhkiG9w0BAQEFAAOBjQAwgYkCgYEAunCtZ+gaQ/Ya6FwYhVSB
AllgeamTH5wvGFHzvDTZFy4yYcsffTAQSyXS6iZUiprjefSCK5M/5OVhGovCOAff
lvTuokmxkiZloS0iLLbbAkLYO7N0YF/yUTVCqDY2Fl/dR1YwoOV5Dr0G3QEXG6Hl
NvAXvNweT+43lTe0LUaLj/8CAwEAAaOB1zCB1DAJBgNVHRMEAjAAMCwGCWCGSAGG
+EIBDQQfFh1PcGVuU1NMIEdlbmVyYXRlZCBDZXJ0aWZpY2F0ZTAdBgNVHQ4EFgQU
YZJphwsp5XKifqzn7HEsHj6XvEYwegYDVR0jBHMwcaFkpGIwYDELMAkGA1UEBhMC
Q04xETAPBgNVBAgMCFNoYW5naGFpMQ0wCwYDVQQHDARjaXR5MRswGQYDVQQKDBJR
dWFudGRvIFRlY2hub2xvZ3kxEjAQBgNVBAMMCTEyNy4wLjAuMYIJAOpiX7HgtzIh
MA0GCSqGSIb3DQEBCwUAA4IBAQA4ctvo/jhJscgAGEFMp1v6pWy5RiXT0v2VKxTl
pwRXkZ2pj8Zn0HKC9ZsknvF4irOCAIHikUYREXD8kox95/99FRtxNfIbSPyjKay7
qqDIehUan8EgBVKax+I5QPWn9Bqf5wVkvrxjeXR9RoS0FjlkECKaLrdY5gxP84z1
yatjineHJsyZggRZePgznIx6m/lBkjZVYwVRigsFJzaofZKowqsohLOpAgILymZ8
vMpWYmXmxRUoAt1DOlyhyMiEXo1ohaqEj+nh67WLJGK0twVpb/hmehfGTUIQ3ICF
rYqCRPRbfNgpZTnw1BKImWkkSxbn6cukwuHWeaS+Rvq9lj30
-----END CERTIFICATE-----
