Certificate:
    Data:
        Version: 3 (0x2)
        Serial Number: 4 (0x4)
    Signature Algorithm: sha256WithRSAEncryption
        Issuer: C=CN, ST=Shanghai, L=city, O=Quantdo Technology, CN=127.0.0.1
        Validity
            Not Before: Jan  3 05:15:22 2018 GMT
            Not After : Jan  3 05:15:22 2019 GMT
        Subject: C=CN, ST=Shanghai, O=Quantdo Technology, CN=127.0.0.1
        Subject Public Key Info:
            Public Key Algorithm: rsaEncryption
                Public-Key: (1024 bit)
                Modulus:
                    00:cc:33:d3:76:d7:ff:a0:32:40:67:07:15:03:5c:
                    33:03:42:a7:d8:ae:95:24:84:67:2a:a7:77:0a:5d:
                    01:cd:6f:de:19:89:09:bf:98:f7:29:43:8a:a9:a6:
                    c7:2e:f5:a8:55:75:8e:15:3f:50:a5:ce:64:2e:f9:
                    07:86:0d:ae:67:44:99:ee:b5:c8:f6:24:9a:47:8e:
                    2c:06:67:70:d6:0d:2a:fb:7d:19:89:0c:13:77:35:
                    64:ab:f9:dd:7c:5f:ae:87:50:38:33:c9:98:7d:93:
                    e2:19:d0:ee:1e:27:6a:19:9b:52:06:96:9b:4b:bd:
                    3f:66:70:9c:0c:ac:d8:d3:71
                Exponent: 65537 (0x10001)
        X509v3 extensions:
            X509v3 Basic Constraints: 
                CA:FALSE
            Netscape Comment: 
                OpenSSL Generated Certificate
            X509v3 Subject Key Identifier: 
                6A:A0:41:57:82:50:B6:D0:45:6E:B1:40:4D:B0:FA:AF:C8:F8:82:CF
            X509v3 Authority Key Identifier: 
                DirName:/C=CN/ST=Shanghai/L=city/O=Quantdo Technology/CN=127.0.0.1
                serial:EA:62:5F:B1:E0:B7:32:21

    Signature Algorithm: sha256WithRSAEncryption
         02:20:63:cd:d0:a5:74:9e:04:a0:d4:a1:cc:fe:09:75:b8:f2:
         77:87:7a:ff:59:4d:a2:82:c6:42:5e:49:c2:8f:f8:29:eb:0c:
         4d:04:73:5e:41:df:a5:55:59:91:05:50:ee:d7:e7:ea:d4:3e:
         da:e2:09:43:78:32:fc:96:d3:33:cb:7c:88:77:96:c2:7f:12:
         3f:40:02:57:b2:46:3f:f7:2d:16:08:da:d8:ad:52:9c:1d:70:
         78:c8:1e:17:a0:a8:7a:27:a5:df:43:5e:19:02:8b:5f:f0:d5:
         47:ad:8d:fd:11:f2:31:08:2d:06:f2:24:43:40:58:47:5b:2c:
         6f:36:bb:d4:f9:00:47:a1:e3:1f:d0:f5:79:69:48:a5:ee:28:
         9f:c2:46:0a:26:79:34:5f:77:c3:be:94:f7:b7:14:3d:6a:e3:
         06:cb:46:61:e1:e7:9f:ad:3c:ba:fa:34:1d:e1:be:ec:d1:6c:
         2c:7c:0f:a0:fe:e9:1b:fd:4c:51:69:93:28:3e:6f:ce:13:9d:
         19:9a:8e:e7:89:47:ff:0f:ec:d9:fc:fc:56:41:bf:15:85:9d:
         01:e9:71:e5:ca:e7:65:33:db:de:5b:d8:4b:63:75:b7:b6:93:
         97:09:4a:4a:85:e0:d8:c7:94:27:7b:dd:13:96:93:f7:eb:9f:
         c4:b6:2f:f1
-----BEGIN CERTIFICATE-----
MIIDgDCCAmigAwIBAgIBBDANBgkqhkiG9w0BAQsFADBgMQswCQYDVQQGEwJDTjER
MA8GA1UECAwIU2hhbmdoYWkxDTALBgNVBAcMBGNpdHkxGzAZBgNVBAoMElF1YW50
ZG8gVGVjaG5vbG9neTESMBAGA1UEAwwJMTI3LjAuMC4xMB4XDTE4MDEwMzA1MTUy
MloXDTE5MDEwMzA1MTUyMlowUTELMAkGA1UEBhMCQ04xETAPBgNVBAgMCFNoYW5n
aGFpMRswGQYDVQQKDBJRdWFudGRvIFRlY2hub2xvZ3kxEjAQBgNVBAMMCTEyNy4w
LjAuMTCBnzANBgkqhkiG9w0BAQEFAAOBjQAwgYkCgYEAzDPTdtf/oDJAZwcVA1wz
A0Kn2K6VJIRnKqd3Cl0BzW/eGYkJv5j3KUOKqabHLvWoVXWOFT9Qpc5kLvkHhg2u
Z0SZ7rXI9iSaR44sBmdw1g0q+30ZiQwTdzVkq/ndfF+uh1A4M8mYfZPiGdDuHidq
GZtSBpabS70/ZnCcDKzY03ECAwEAAaOB1zCB1DAJBgNVHRMEAjAAMCwGCWCGSAGG
+EIBDQQfFh1PcGVuU1NMIEdlbmVyYXRlZCBDZXJ0aWZpY2F0ZTAdBgNVHQ4EFgQU
aqBBV4JQttBFbrFATbD6r8j4gs8wegYDVR0jBHMwcaFkpGIwYDELMAkGA1UEBhMC
Q04xETAPBgNVBAgMCFNoYW5naGFpMQ0wCwYDVQQHDARjaXR5MRswGQYDVQQKDBJR
dWFudGRvIFRlY2hub2xvZ3kxEjAQBgNVBAMMCTEyNy4wLjAuMYIJAOpiX7HgtzIh
MA0GCSqGSIb3DQEBCwUAA4IBAQACIGPN0KV0ngSg1KHM/gl1uPJ3h3r/WU2igsZC
XknCj/gp6wxNBHNeQd+lVVmRBVDu1+fq1D7a4glDeDL8ltMzy3yId5bCfxI/QAJX
skY/9y0WCNrYrVKcHXB4yB4XoKh6J6XfQ14ZAotf8NVHrY39EfIxCC0G8iRDQFhH
WyxvNrvU+QBHoeMf0PV5aUil7iifwkYKJnk0X3fDvpT3txQ9auMGy0Zh4eefrTy6
+jQd4b7s0WwsfA+g/ukb/UxRaZMoPm/OE50Zmo7niUf/D+zZ/PxWQb8VhZ0B6XHl
yudlM9veW9hLY3W3tpOXCUpKheDYx5Qne90TlpP365/Eti/x
-----END CERTIFICATE-----
-----BEGIN RSA PRIVATE KEY-----
MIICXQIBAAKBgQDMM9N21/+gMkBnBxUDXDMDQqfYrpUkhGcqp3cKXQHNb94ZiQm/
mPcpQ4qppscu9ahVdY4VP1ClzmQu+QeGDa5nRJnutcj2JJpHjiwGZ3DWDSr7fRmJ
DBN3NWSr+d18X66HUDgzyZh9k+IZ0O4eJ2oZm1IGlptLvT9mcJwMrNjTcQIDAQAB
AoGBAKGDLHMHjUyr8nyLAXfS6RZfFlswWw6zGtaF9oXf4pkXLliMJ4W/+15L6dUd
8NWXwDk37dWoaqV6hYsRtX22PIZP1V9uPx4427TXk6pGuttkBdjSqg4MakPUZ8cd
V8d+WpcvtRuwOiZch7WOmR+hNOgs1PL4wO+qhULhv+GxqZpBAkEA6kMF3/rUq67Y
zoexFLfhwPLkE14mJcAzLlO9FteuFQR3jMbvZGNGZT/aaqaMYE2HNQSsLBAO+l6q
oMivS+it9QJBAN8mu018XTXc7KDmuCnTKH60rfrqBgBXLQowdsDkZYrMF1Z+i5WY
+7owm9wGCEs/X2eFeh0qYOAXIYNwz887Rg0CQCq52Kt2Qy2g8TgR9ZEyzID1i/Wg
WVLPUEZlzXoKEl0Q+ID7k5P6q08yKzMCd13lJgDcfk53C1RMydATai1tHbUCQQDK
lPblWUmlZHLNf6chETlqDc0ERQA9vuZ8oZKteqtUXgOx2iAOJ1wfo5FbJX7SES4j
ZOF/KMHZriYWlYuSrlThAkB+sFF8U6dU/okL+jFdst8kMItNiPMsegJ8cKGk9BCQ
9KpKt8K63q+ZmAPQ0e8zbDk5/5NkgMlnRBDYZEoeSxVe
-----END RSA PRIVATE KEY-----
